; ModuleID = '38/789.c'
source_filename = "38/789.c"
target datalayout = "e-m:e-p270:32:32-p271:32:32-p272:64:64-i64:64-f80:128-n8:16:32:64-S128"
target triple = "x86_64-pc-linux-gnu"

@.str = private unnamed_addr constant [3 x i8] c"%d\00", align 1
@.str.1 = private unnamed_addr constant [3 x i8] c"%f\00", align 1
@.str.2 = private unnamed_addr constant [7 x i8] c"%.5lf\0A\00", align 1

; Function Attrs: noinline nounwind uwtable
define dso_local i32 @main() #0 {
  %1 = alloca i32, align 4
  %2 = alloca i32, align 4
  %3 = alloca i32, align 4
  %4 = alloca i32, align 4
  %5 = alloca float, align 4
  %6 = alloca float, align 4
  %7 = alloca i32, align 4
  %8 = alloca i8*, align 8
  %9 = alloca i64, align 8
  %10 = alloca double, align 8
  %11 = alloca double, align 8
  %12 = alloca double, align 8
  store i32 0, i32* %1, align 4
  %13 = call i32 (i8*, ...) @__isoc99_scanf(i8* getelementptr inbounds ([3 x i8], [3 x i8]* @.str, i64 0, i64 0), i32* %4)
  store i32 0, i32* %3, align 4
  br label %14

14:                                               ; preds = %82, %0
  %15 = load i32, i32* %3, align 4
  %16 = load i32, i32* %4, align 4
  %17 = icmp slt i32 %15, %16
  br i1 %17, label %18, label %85

18:                                               ; preds = %14
  store float 0.000000e+00, float* %5, align 4
  %19 = call i32 (i8*, ...) @__isoc99_scanf(i8* getelementptr inbounds ([3 x i8], [3 x i8]* @.str, i64 0, i64 0), i32* %7)
  %20 = load i32, i32* %7, align 4
  %21 = zext i32 %20 to i64
  %22 = call i8* @llvm.stacksave()
  store i8* %22, i8** %8, align 8
  %23 = alloca float, i64 %21, align 16
  store i64 %21, i64* %9, align 8
  store i32 0, i32* %2, align 4
  br label %24

24:                                               ; preds = %39, %18
  %25 = load i32, i32* %2, align 4
  %26 = load i32, i32* %7, align 4
  %27 = icmp slt i32 %25, %26
  br i1 %27, label %28, label %42

28:                                               ; preds = %24
  %29 = load i32, i32* %2, align 4
  %30 = sext i32 %29 to i64
  %31 = getelementptr inbounds float, float* %23, i64 %30
  %32 = call i32 (i8*, ...) @__isoc99_scanf(i8* getelementptr inbounds ([3 x i8], [3 x i8]* @.str.1, i64 0, i64 0), float* %31)
  %33 = load i32, i32* %2, align 4
  %34 = sext i32 %33 to i64
  %35 = getelementptr inbounds float, float* %23, i64 %34
  %36 = load float, float* %35, align 4
  %37 = load float, float* %5, align 4
  %38 = fadd float %37, %36
  store float %38, float* %5, align 4
  br label %39

39:                                               ; preds = %28
  %40 = load i32, i32* %2, align 4
  %41 = add nsw i32 %40, 1
  store i32 %41, i32* %2, align 4
  br label %24

42:                                               ; preds = %24
  %43 = load float, float* %5, align 4
  %44 = load i32, i32* %7, align 4
  %45 = sitofp i32 %44 to float
  %46 = fdiv float %43, %45
  store float %46, float* %6, align 4
  store double 0.000000e+00, double* %10, align 8
  store i32 0, i32* %2, align 4
  br label %47

47:                                               ; preds = %69, %42
  %48 = load i32, i32* %2, align 4
  %49 = load i32, i32* %7, align 4
  %50 = icmp slt i32 %48, %49
  br i1 %50, label %51, label %72

51:                                               ; preds = %47
  %52 = load i32, i32* %2, align 4
  %53 = sext i32 %52 to i64
  %54 = getelementptr inbounds float, float* %23, i64 %53
  %55 = load float, float* %54, align 4
  %56 = load float, float* %6, align 4
  %57 = fsub float %55, %56
  %58 = fpext float %57 to double
  %59 = load i32, i32* %2, align 4
  %60 = sext i32 %59 to i64
  %61 = getelementptr inbounds float, float* %23, i64 %60
  %62 = load float, float* %61, align 4
  %63 = load float, float* %6, align 4
  %64 = fsub float %62, %63
  %65 = fpext float %64 to double
  %66 = fmul double %58, %65
  %67 = load double, double* %10, align 8
  %68 = fadd double %67, %66
  store double %68, double* %10, align 8
  br label %69

69:                                               ; preds = %51
  %70 = load i32, i32* %2, align 4
  %71 = add nsw i32 %70, 1
  store i32 %71, i32* %2, align 4
  br label %47

72:                                               ; preds = %47
  %73 = load double, double* %10, align 8
  %74 = load i32, i32* %7, align 4
  %75 = sitofp i32 %74 to double
  %76 = fdiv double %73, %75
  store double %76, double* %11, align 8
  %77 = load double, double* %11, align 8
  %78 = call double @sqrt(double %77) #2
  store double %78, double* %12, align 8
  %79 = load double, double* %12, align 8
  %80 = call i32 (i8*, ...) @printf(i8* getelementptr inbounds ([7 x i8], [7 x i8]* @.str.2, i64 0, i64 0), double %79)
  %81 = load i8*, i8** %8, align 8
  call void @llvm.stackrestore(i8* %81)
  br label %82

82:                                               ; preds = %72
  %83 = load i32, i32* %3, align 4
  %84 = add nsw i32 %83, 1
  store i32 %84, i32* %3, align 4
  br label %14

85:                                               ; preds = %14
  ret i32 0
}

declare dso_local i32 @__isoc99_scanf(i8*, ...) #1

; Function Attrs: nounwind
declare i8* @llvm.stacksave() #2

; Function Attrs: nounwind
declare dso_local double @sqrt(double) #3

declare dso_local i32 @printf(i8*, ...) #1

; Function Attrs: nounwind
declare void @llvm.stackrestore(i8*) #2


!llvm.module.flags = !{!0}
!llvm.ident = !{!1}

!0 = !{i32 1, !"wchar_size", i32 4}
!1 = !{!"clang version 10.0.0-4ubuntu1 "}
